target datalayout = "e-m:e-p270:32:32-p271:32:32-p272:64:64-i64:64-i128:128-f80:128-n8:16:32:64-S128"
target triple = "x86_64-pc-linux-gnu"

@.str = private unnamed_addr constant [36 x i8] c"FATAL ERROR %s -> in %s @ in %s:%d \00", align 1
@.str.2 = private unnamed_addr constant [106 x i8] c"generated/home/dtcxzyw/WorkSpace/Projects/compilers/llvm-opt-benchmark/bench/c3c/c3c/src/compiler/types.c\00", align 1
@.str.17 = private unnamed_addr constant [22 x i8] c"Should be unreachable\00", align 1
@__func__.type_get_introspection_kind = private unnamed_addr constant [28 x i8] c"type_get_introspection_kind\00", align 1

; Function Attrs: nounwind uwtable
define dso_local i32 @type_get_introspection_kind(i32 noundef %0) #0 {
  %2 = alloca i32, align 4
  %3 = alloca i32, align 4
  store i32 %0, ptr %3, align 4
  %4 = load i32, ptr %3, align 4
  switch i32 %4, label %33 [
    i32 0, label %5
    i32 1, label %6
    i32 2, label %7
    i32 3, label %8
    i32 4, label %8
    i32 5, label %8
    i32 6, label %8
    i32 7, label %8
    i32 8, label %9
    i32 9, label %9
    i32 10, label %9
    i32 11, label %9
    i32 12, label %9
    i32 13, label %10
    i32 14, label %10
    i32 15, label %10
    i32 16, label %10
    i32 17, label %10
    i32 18, label %11
    i32 21, label %12
    i32 28, label %13
    i32 22, label %14
    i32 23, label %15
    i32 19, label %15
    i32 20, label %15
    i32 24, label %16
    i32 25, label %17
    i32 26, label %18
    i32 27, label %19
    i32 29, label %20
    i32 30, label %21
    i32 31, label %22
    i32 32, label %25
    i32 33, label %26
    i32 36, label %26
    i32 35, label %26
    i32 34, label %27
    i32 37, label %28
    i32 38, label %28
    i32 40, label %29
    i32 39, label %30
    i32 42, label %30
    i32 43, label %30
    i32 41, label %30
  ]

5:                                                ; preds = %1
  store i32 0, ptr %2, align 4
  br label %35

6:                                                ; preds = %1
  store i32 0, ptr %2, align 4
  br label %35

7:                                                ; preds = %1
  store i32 1, ptr %2, align 4
  br label %35

8:                                                ; preds = %1, %1, %1, %1, %1
  store i32 2, ptr %2, align 4
  br label %35

9:                                                ; preds = %1, %1, %1, %1, %1
  store i32 3, ptr %2, align 4
  br label %35

10:                                               ; preds = %1, %1, %1, %1, %1
  store i32 4, ptr %2, align 4
  br label %35

11:                                               ; preds = %1
  store i32 7, ptr %2, align 4
  br label %35

12:                                               ; preds = %1
  store i32 6, ptr %2, align 4
  br label %35

13:                                               ; preds = %1
  store i32 20, ptr %2, align 4
  br label %35

14:                                               ; preds = %1
  store i32 5, ptr %2, align 4
  br label %35

15:                                               ; preds = %1, %1, %1
  store i32 19, ptr %2, align 4
  br label %35

16:                                               ; preds = %1
  store i32 8, ptr %2, align 4
  br label %35

17:                                               ; preds = %1
  store i32 13, ptr %2, align 4
  br label %35

18:                                               ; preds = %1
  store i32 10, ptr %2, align 4
  br label %35

19:                                               ; preds = %1
  store i32 11, ptr %2, align 4
  br label %35

20:                                               ; preds = %1
  store i32 12, ptr %2, align 4
  br label %35

21:                                               ; preds = %1
  store i32 9, ptr %2, align 4
  br label %35

22:                                               ; preds = %1
  br label %23

23:                                               ; preds = %22
  call void (ptr, ...) @error_exit(ptr noundef @.str, ptr noundef @.str.17, ptr noundef @__func__.type_get_introspection_kind, ptr noundef @.str.2, i32 noundef 2290) #7
  unreachable

24:                                               ; No predecessors!
  br label %25

25:                                               ; preds = %24, %1
  store i32 18, ptr %2, align 4
  br label %35

26:                                               ; preds = %1, %1, %1
  store i32 15, ptr %2, align 4
  br label %35

27:                                               ; preds = %1
  store i32 16, ptr %2, align 4
  br label %35

28:                                               ; preds = %1, %1
  store i32 17, ptr %2, align 4
  br label %35

29:                                               ; preds = %1
  store i32 14, ptr %2, align 4
  br label %35

30:                                               ; preds = %1, %1, %1, %1
  br label %31

31:                                               ; preds = %30
  call void (ptr, ...) @error_exit(ptr noundef @.str, ptr noundef @.str.17, ptr noundef @__func__.type_get_introspection_kind, ptr noundef @.str.2, i32 noundef 2308) #7
  unreachable

32:                                               ; No predecessors!
  store i32 0, ptr %2, align 4
  br label %35

33:                                               ; preds = %1
  br label %34

34:                                               ; preds = %33
  call void (ptr, ...) @error_exit(ptr noundef @.str, ptr noundef @.str.17, ptr noundef @__func__.type_get_introspection_kind, ptr noundef @.str.2, i32 noundef 2311) #7
  unreachable

35:                                               ; preds = %32, %29, %28, %27, %26, %25, %21, %20, %19, %18, %17, %16, %15, %14, %13, %12, %11, %10, %9, %8, %7, %6, %5
  %36 = load i32, ptr %2, align 4
  ret i32 %36
}