; Function Attrs: nounwind uwtable
define dso_local noundef i32 @type_get_introspection_kind(i32 noundef %0) local_unnamed_addr #0 {
  switch i32 %0, label %24 [
    i32 0, label %25
    i32 1, label %25
    i32 2, label %2
    i32 3, label %3
    i32 4, label %3
    i32 5, label %3
    i32 6, label %3
    i32 7, label %3
    i32 8, label %4
    i32 9, label %4
    i32 10, label %4
    i32 11, label %4
    i32 12, label %4
    i32 13, label %5
    i32 14, label %5
    i32 15, label %5
    i32 16, label %5
    i32 17, label %5
    i32 18, label %6
    i32 21, label %7
    i32 28, label %8
    i32 22, label %9
    i32 23, label %10
    i32 19, label %10
    i32 20, label %10
    i32 24, label %11
    i32 25, label %12
    i32 26, label %13
    i32 27, label %14
    i32 29, label %15
    i32 30, label %16
    i32 31, label %17
    i32 32, label %18
    i32 33, label %19
    i32 36, label %19
    i32 35, label %19
    i32 34, label %20
    i32 37, label %21
    i32 38, label %21
    i32 40, label %22
    i32 39, label %23
    i32 42, label %23
    i32 43, label %23
    i32 41, label %23
  ]

2:                                                ; preds = %1
  br label %25

3:                                                ; preds = %1, %1, %1, %1, %1
  br label %25

4:                                                ; preds = %1, %1, %1, %1, %1
  br label %25

5:                                                ; preds = %1, %1, %1, %1, %1
  br label %25

6:                                                ; preds = %1
  br label %25

7:                                                ; preds = %1
  br label %25

8:                                                ; preds = %1
  br label %25

9:                                                ; preds = %1
  br label %25

10:                                               ; preds = %1, %1, %1
  br label %25

11:                                               ; preds = %1
  br label %25

12:                                               ; preds = %1
  br label %25

13:                                               ; preds = %1
  br label %25

14:                                               ; preds = %1
  br label %25

15:                                               ; preds = %1
  br label %25

16:                                               ; preds = %1
  br label %25

17:                                               ; preds = %1
  tail call void (ptr, ...) @error_exit(ptr noundef nonnull @.str, ptr noundef nonnull @.str.17, ptr noundef nonnull @__func__.type_get_introspection_kind, ptr noundef nonnull @.str.2, i32 noundef 2290) #13
  unreachable

18:                                               ; preds = %1
  br label %25

19:                                               ; preds = %1, %1, %1
  br label %25

20:                                               ; preds = %1
  br label %25

21:                                               ; preds = %1, %1
  br label %25

22:                                               ; preds = %1
  br label %25

23:                                               ; preds = %1, %1, %1, %1
  tail call void (ptr, ...) @error_exit(ptr noundef nonnull @.str, ptr noundef nonnull @.str.17, ptr noundef nonnull @__func__.type_get_introspection_kind, ptr noundef nonnull @.str.2, i32 noundef 2308) #13
  unreachable

24:                                               ; preds = %1
  tail call void (ptr, ...) @error_exit(ptr noundef nonnull @.str, ptr noundef nonnull @.str.17, ptr noundef nonnull @__func__.type_get_introspection_kind, ptr noundef nonnull @.str.2, i32 noundef 2311) #13
  unreachable

25:                                               ; preds = %1, %1, %22, %21, %20, %19, %18, %16, %15, %14, %13, %12, %11, %10, %9, %8, %7, %6, %5, %4, %3, %2
  %.0 = phi i32 [ 14, %22 ], [ 17, %21 ], [ 16, %20 ], [ 15, %19 ], [ 18, %18 ], [ 9, %16 ], [ 12, %15 ], [ 11, %14 ], [ 10, %13 ], [ 13, %12 ], [ 8, %11 ], [ 19, %10 ], [ 5, %9 ], [ 20, %8 ], [ 6, %7 ], [ 7, %6 ], [ 4, %5 ], [ 3, %4 ], [ 2, %3 ], [ 1, %2 ], [ 0, %1 ], [ 0, %1 ]
  ret i32 %.0
}